target datalayout = "e-m:e-p270:32:32-p271:32:32-p272:64:64-i64:64-i128:128-f80:128-n8:16:32:64-S128"
target triple = "x86_64-pc-linux-gnu"

%"struct.Yosys::DriveBitMarker" = type { i32, i32 }
%"struct.Yosys::DriveChunkMarker" = type { i32, i32, i32 }

; Function Attrs: mustprogress nounwind uwtable
define noundef zeroext i1 @_ZNK5Yosys16DriveChunkMarker10can_appendERKNS_14DriveBitMarkerE(ptr noundef nonnull align 4 dereferenceable(12) %0, ptr noundef nonnull align 4 dereferenceable(8) %1) #7 align 2 {
  %3 = alloca ptr, align 8
  %4 = alloca ptr, align 8
  store ptr %0, ptr %3, align 8, !tbaa !71
  store ptr %1, ptr %4, align 8, !tbaa !73
  %5 = load ptr, ptr %3, align 8
  %6 = load ptr, ptr %4, align 8, !tbaa !73
  %7 = getelementptr inbounds nuw %"struct.Yosys::DriveBitMarker", ptr %6, i32 0, i32 0
  %8 = load i32, ptr %7, align 4, !tbaa !75
  %9 = getelementptr inbounds nuw %"struct.Yosys::DriveChunkMarker", ptr %5, i32 0, i32 0
  %10 = load i32, ptr %9, align 4, !tbaa !77
  %11 = icmp eq i32 %8, %10
  br i1 %11, label %12, label %22

12:                                               ; preds = %2
  %13 = load ptr, ptr %4, align 8, !tbaa !73
  %14 = getelementptr inbounds nuw %"struct.Yosys::DriveBitMarker", ptr %13, i32 0, i32 1
  %15 = load i32, ptr %14, align 4, !tbaa !79
  %16 = getelementptr inbounds nuw %"struct.Yosys::DriveChunkMarker", ptr %5, i32 0, i32 1
  %17 = load i32, ptr %16, align 4, !tbaa !80
  %18 = getelementptr inbounds nuw %"struct.Yosys::DriveChunkMarker", ptr %5, i32 0, i32 2
  %19 = load i32, ptr %18, align 4, !tbaa !81
  %20 = add nsw i32 %17, %19
  %21 = icmp eq i32 %15, %20
  br label %22

22:                                               ; preds = %12, %2
  %23 = phi i1 [ false, %2 ], [ %21, %12 ]
  ret i1 %23
}